target datalayout = "e-m:e-p270:32:32-p271:32:32-p272:64:64-i64:64-i128:128-f80:128-n8:16:32:64-S128"
target triple = "x86_64-pc-linux-gnu"

@stderr = external global ptr, align 8
@.str = private unnamed_addr constant [4 x i8] c"%s\0A\00", align 1
@.str.5 = private unnamed_addr constant [30 x i8] c"Bad f argument or I/O failure\00", align 1

; Function Attrs: nounwind uwtable
define ptr @CORD_from_file(ptr noundef %0) #0 {
  %2 = alloca ptr, align 8
  %3 = alloca ptr, align 8
  %4 = alloca i64, align 8
  %5 = alloca i32, align 4
  store ptr %0, ptr %3, align 8, !tbaa !9
  call void @llvm.lifetime.start.p0(i64 8, ptr %4) #9
  %6 = load ptr, ptr %3, align 8, !tbaa !9
  %7 = call i32 @fseek(ptr noundef %6, i64 noundef 0, i32 noundef 2)
  %8 = icmp ne i32 %7, 0
  br i1 %8, label %17, label %9

9:                                                ; preds = %1
  %10 = load ptr, ptr %3, align 8, !tbaa !9
  %11 = call i64 @ftell(ptr noundef %10)
  store i64 %11, ptr %4, align 8, !tbaa !11
  %12 = icmp slt i64 %11, 0
  br i1 %12, label %17, label %13

13:                                               ; preds = %9
  %14 = load ptr, ptr %3, align 8, !tbaa !9
  %15 = call i32 @fseek(ptr noundef %14, i64 noundef 0, i32 noundef 0)
  %16 = icmp ne i32 %15, 0
  br i1 %16, label %17, label %20

17:                                               ; preds = %13, %9, %1
  %18 = load ptr, ptr @stderr, align 8, !tbaa !9
  %19 = call i32 (ptr, ptr, ...) @fprintf(ptr noundef %18, ptr noundef @.str, ptr noundef @.str.5) #9
  call void @abort() #11
  unreachable

20:                                               ; preds = %13
  %21 = load i64, ptr %4, align 8, !tbaa !11
  %22 = icmp slt i64 %21, 131073
  br i1 %22, label %23, label %26

23:                                               ; preds = %20
  %24 = load ptr, ptr %3, align 8, !tbaa !9
  %25 = call ptr @CORD_from_file_eager(ptr noundef %24)
  store ptr %25, ptr %2, align 8
  store i32 1, ptr %5, align 4
  br label %30

26:                                               ; preds = %20
  %27 = load ptr, ptr %3, align 8, !tbaa !9
  %28 = load i64, ptr %4, align 8, !tbaa !11
  %29 = call ptr @CORD_from_file_lazy_inner(ptr noundef %27, i64 noundef %28)
  store ptr %29, ptr %2, align 8
  store i32 1, ptr %5, align 4
  br label %30

30:                                               ; preds = %26, %23
  call void @llvm.lifetime.end.p0(i64 8, ptr %4) #9
  %31 = load ptr, ptr %2, align 8
  ret ptr %31
}