; Function Attrs: nounwind uwtable
define ptr @CORD_from_file(ptr noundef %0) local_unnamed_addr #0 {
  %2 = tail call i32 @fseek(ptr noundef %0, i64 noundef 0, i32 noundef 2)
  %.not = icmp eq i32 %2, 0
  br i1 %.not, label %3, label %8

3:                                                ; preds = %1
  %4 = tail call i64 @ftell(ptr noundef %0)
  %5 = icmp slt i64 %4, 0
  br i1 %5, label %8, label %6

6:                                                ; preds = %3
  %7 = tail call i32 @fseek(ptr noundef %0, i64 noundef 0, i32 noundef 0)
  %.not8 = icmp eq i32 %7, 0
  br i1 %.not8, label %11, label %8

8:                                                ; preds = %6, %3, %1
  %9 = load ptr, ptr @stderr, align 8, !tbaa !3
  %10 = tail call i32 (ptr, ptr, ...) @fprintf(ptr noundef %9, ptr noundef nonnull @.str, ptr noundef nonnull @.str.5) #18
  tail call void @abort() #19
  unreachable

11:                                               ; preds = %6
  %12 = icmp samesign ult i64 %4, 131073
  br i1 %12, label %13, label %15

13:                                               ; preds = %11
  %14 = tail call ptr @CORD_from_file_eager(ptr noundef %0)
  br label %17

15:                                               ; preds = %11
  %16 = tail call fastcc ptr @CORD_from_file_lazy_inner(ptr noundef %0, i64 noundef %4)
  br label %17

17:                                               ; preds = %15, %13
  %.0 = phi ptr [ %14, %13 ], [ %16, %15 ]
  ret ptr %.0
}